target datalayout = "e-m:e-p270:32:32-p271:32:32-p272:64:64-i64:64-i128:128-f80:128-n8:16:32:64-S128"
target triple = "x86_64-pc-linux-gnu"

; Function Attrs: mustprogress uwtable
define i32 @ucnv_fromAlgorithmic_77(ptr noundef %0, i32 noundef %1, ptr noundef %2, i32 noundef %3, ptr noundef %4, i32 noundef %5, ptr noundef %6) #0 {
  %8 = alloca i32, align 4
  %9 = alloca ptr, align 8
  %10 = alloca i32, align 4
  %11 = alloca ptr, align 8
  %12 = alloca i32, align 4
  %13 = alloca ptr, align 8
  %14 = alloca i32, align 4
  %15 = alloca ptr, align 8
  store ptr %0, ptr %9, align 8, !tbaa !11
  store i32 %1, ptr %10, align 4, !tbaa !125
  store ptr %2, ptr %11, align 8, !tbaa !3
  store i32 %3, ptr %12, align 4, !tbaa !15
  store ptr %4, ptr %13, align 8, !tbaa !3
  store i32 %5, ptr %14, align 4, !tbaa !15
  store ptr %6, ptr %15, align 8, !tbaa !8
  %16 = load i32, ptr %10, align 4, !tbaa !125
  %17 = icmp slt i32 %16, 0
  br i1 %17, label %21, label %18

18:                                               ; preds = %7
  %19 = load i32, ptr %10, align 4, !tbaa !125
  %20 = icmp sle i32 34, %19
  br i1 %20, label %21, label %23

21:                                               ; preds = %18, %7
  %22 = load ptr, ptr %15, align 8, !tbaa !8
  store i32 1, ptr %22, align 4, !tbaa !9
  store i32 0, ptr %8, align 4
  br label %32

23:                                               ; preds = %18
  %24 = load i32, ptr %10, align 4, !tbaa !125
  %25 = load ptr, ptr %9, align 8, !tbaa !11
  %26 = load ptr, ptr %11, align 8, !tbaa !3
  %27 = load i32, ptr %12, align 4, !tbaa !15
  %28 = load ptr, ptr %13, align 8, !tbaa !3
  %29 = load i32, ptr %14, align 4, !tbaa !15
  %30 = load ptr, ptr %15, align 8, !tbaa !8
  %31 = call noundef i32 @_ZL23ucnv_convertAlgorithmica14UConverterTypeP10UConverterPciPKciP10UErrorCode(i8 noundef signext 0, i32 noundef %24, ptr noundef %25, ptr noundef %26, i32 noundef %27, ptr noundef %28, i32 noundef %29, ptr noundef %30)
  store i32 %31, ptr %8, align 4
  br label %32

32:                                               ; preds = %23, %21
  %33 = load i32, ptr %8, align 4
  ret i32 %33
}