; Function Attrs: mustprogress uwtable
define noundef i32 @ucnv_fromAlgorithmic_77(ptr noundef %0, i32 noundef %1, ptr noundef %2, i32 noundef %3, ptr noundef %4, i32 noundef %5, ptr noundef %6) local_unnamed_addr #0 {
  %or.cond = icmp ugt i32 %1, 33
  br i1 %or.cond, label %8, label %9

8:                                                ; preds = %7
  store i32 1, ptr %6, align 4, !tbaa !3
  br label %11

9:                                                ; preds = %7
  %10 = tail call fastcc noundef i32 @_ZL23ucnv_convertAlgorithmica14UConverterTypeP10UConverterPciPKciP10UErrorCode(i8 noundef signext 0, i32 noundef %1, ptr noundef %0, ptr noundef %2, i32 noundef %3, ptr noundef %4, i32 noundef %5, ptr noundef %6)
  br label %11

11:                                               ; preds = %9, %8
  %.0 = phi i32 [ 0, %8 ], [ %10, %9 ]
  ret i32 %.0
}